; Function Attrs: mustprogress nofree norecurse nosync nounwind willreturn memory(none) uwtable
define zeroext i16 @stb__Quantize6(float noundef %0) local_unnamed_addr #0 {
  %2 = fcmp olt float %0, 0.000000e+00
  %3 = fcmp ogt float %0, 1.000000e+00
  %4 = select i1 %3, float 1.000000e+00, float %0
  %5 = select i1 %2, float 0.000000e+00, float %4
  %6 = fmul float %5, 6.300000e+01
  %7 = fptoui float %6 to i16
  %8 = zext i16 %7 to i64
  %9 = getelementptr inbounds nuw [64 x float], ptr @stb__midpoints6, i64 0, i64 %8
  %10 = load float, ptr %9, align 4, !tbaa !15
  %11 = fcmp ogt float %5, %10
  %12 = zext i1 %11 to i16
  %13 = add i16 %12, %7
  ret i16 %13
}